target datalayout = "e-m:e-p270:32:32-p271:32:32-p272:64:64-i64:64-i128:128-f80:128-n8:16:32:64-S128"
target triple = "x86_64-pc-linux-gnu"

%struct.lzma_filter_encoder = type { i64, ptr, ptr, ptr, ptr, i32, ptr }
%struct.lzma_filter = type { i64, ptr }

; Function Attrs: nounwind uwtable
define internal ptr @encoder_find(i64 noundef %0) #1 {
  %2 = alloca ptr, align 8
  %3 = alloca i64, align 8
  %4 = alloca i64, align 8
  store i64 %0, ptr %3, align 8
  store i64 0, ptr %4, align 8
  br label %5

5:                                                ; preds = %19, %1
  %6 = load i64, ptr %4, align 8
  %7 = icmp ult i64 %6, 9
  br i1 %7, label %8, label %22

8:                                                ; preds = %5
  %9 = load i64, ptr %4, align 8
  %10 = getelementptr inbounds [9 x %struct.lzma_filter_encoder], ptr @encoders, i64 0, i64 %9
  %11 = getelementptr inbounds %struct.lzma_filter_encoder, ptr %10, i32 0, i32 0
  %12 = load i64, ptr %11, align 8
  %13 = load i64, ptr %3, align 8
  %14 = icmp eq i64 %12, %13
  br i1 %14, label %15, label %18

15:                                               ; preds = %8
  %16 = load i64, ptr %4, align 8
  %17 = getelementptr inbounds %struct.lzma_filter_encoder, ptr @encoders, i64 %16
  store ptr %17, ptr %2, align 8
  br label %23

18:                                               ; preds = %8
  br label %19

19:                                               ; preds = %18
  %20 = load i64, ptr %4, align 8
  %21 = add i64 %20, 1
  store i64 %21, ptr %4, align 8
  br label %5, !llvm.loop !5

22:                                               ; preds = %5
  store ptr null, ptr %2, align 8
  br label %23

23:                                               ; preds = %22, %15
  %24 = load ptr, ptr %2, align 8
  ret ptr %24
}

; Function Attrs: nounwind uwtable
define dso_local i64 @lzma_mt_block_size(ptr noundef %0) #1 {
  %2 = alloca i64, align 8
  %3 = alloca ptr, align 8
  %4 = alloca i64, align 8
  %5 = alloca i64, align 8
  %6 = alloca ptr, align 8
  %7 = alloca i64, align 8
  store ptr %0, ptr %3, align 8
  store i64 0, ptr %4, align 8
  store i64 0, ptr %5, align 8
  br label %8

8:                                                ; preds = %47, %1
  %9 = load ptr, ptr %3, align 8
  %10 = load i64, ptr %5, align 8
  %11 = getelementptr inbounds %struct.lzma_filter, ptr %9, i64 %10
  %12 = getelementptr inbounds %struct.lzma_filter, ptr %11, i32 0, i32 0
  %13 = load i64, ptr %12, align 8
  %14 = icmp ne i64 %13, -1
  br i1 %14, label %15, label %50

15:                                               ; preds = %8
  %16 = load ptr, ptr %3, align 8
  %17 = load i64, ptr %5, align 8
  %18 = getelementptr inbounds %struct.lzma_filter, ptr %16, i64 %17
  %19 = getelementptr inbounds %struct.lzma_filter, ptr %18, i32 0, i32 0
  %20 = load i64, ptr %19, align 8
  %21 = call ptr @encoder_find(i64 noundef %20)
  store ptr %21, ptr %6, align 8
  %22 = load ptr, ptr %6, align 8
  %23 = getelementptr inbounds %struct.lzma_filter_encoder, ptr %22, i32 0, i32 3
  %24 = load ptr, ptr %23, align 8
  %25 = icmp ne ptr %24, null
  br i1 %25, label %26, label %46

26:                                               ; preds = %15
  %27 = load ptr, ptr %6, align 8
  %28 = getelementptr inbounds %struct.lzma_filter_encoder, ptr %27, i32 0, i32 3
  %29 = load ptr, ptr %28, align 8
  %30 = load ptr, ptr %3, align 8
  %31 = load i64, ptr %5, align 8
  %32 = getelementptr inbounds %struct.lzma_filter, ptr %30, i64 %31
  %33 = getelementptr inbounds %struct.lzma_filter, ptr %32, i32 0, i32 1
  %34 = load ptr, ptr %33, align 8
  %35 = call i64 %29(ptr noundef %34)
  store i64 %35, ptr %7, align 8
  %36 = load i64, ptr %7, align 8
  %37 = icmp eq i64 %36, 0
  br i1 %37, label %38, label %39

38:                                               ; preds = %26
  store i64 0, ptr %2, align 8
  br label %52

39:                                               ; preds = %26
  %40 = load i64, ptr %7, align 8
  %41 = load i64, ptr %4, align 8
  %42 = icmp ugt i64 %40, %41
  br i1 %42, label %43, label %45

43:                                               ; preds = %39
  %44 = load i64, ptr %7, align 8
  store i64 %44, ptr %4, align 8
  br label %45

45:                                               ; preds = %43, %39
  br label %46

46:                                               ; preds = %45, %15
  br label %47

47:                                               ; preds = %46
  %48 = load i64, ptr %5, align 8
  %49 = add i64 %48, 1
  store i64 %49, ptr %5, align 8
  br label %8, !llvm.loop !9

50:                                               ; preds = %8
  %51 = load i64, ptr %4, align 8
  store i64 %51, ptr %2, align 8
  br label %52

52:                                               ; preds = %50, %38
  %53 = load i64, ptr %2, align 8
  ret i64 %53
}