; Function Attrs: nounwind uwtable
define dso_local i64 @lzma_mt_block_size(ptr noundef readonly captures(none) %0) local_unnamed_addr #2 {
  %2 = load i64, ptr %0, align 8
  %.not21 = icmp eq i64 %2, -1
  br i1 %.not21, label %._crit_edge, label %.preheader

.preheader:                                       ; preds = %1, %17
  %3 = phi i64 [ %20, %17 ], [ %2, %1 ]
  %.01423 = phi i64 [ %.1, %17 ], [ 0, %1 ]
  %.01522 = phi i64 [ %18, %17 ], [ 0, %1 ]
  %4 = icmp eq i64 %3, 4611686018427387905
  br i1 %4, label %encoder_find.exit, label %.lr.ph

.lr.ph:                                           ; preds = %.preheader, %.lr.ph
  %.07.i20 = phi i64 [ %5, %.lr.ph ], [ 0, %.preheader ]
  %5 = add nuw nsw i64 %.07.i20, 1
  %exitcond.not.i = icmp ne i64 %5, 9
  tail call void @llvm.assume(i1 %exitcond.not.i)
  %6 = getelementptr inbounds nuw [9 x %struct.lzma_filter_encoder], ptr @encoders, i64 0, i64 %5
  %7 = load i64, ptr %6, align 8
  %8 = icmp eq i64 %7, %3
  br i1 %8, label %encoder_find.exit, label %.lr.ph

encoder_find.exit:                                ; preds = %.lr.ph, %.preheader
  %.lcssa = phi ptr [ @encoders, %.preheader ], [ %6, %.lr.ph ]
  %9 = getelementptr inbounds nuw i8, ptr %.lcssa, i64 24
  %10 = load ptr, ptr %9, align 8
  %.not19 = icmp eq ptr %10, null
  br i1 %.not19, label %17, label %11

11:                                               ; preds = %encoder_find.exit
  %12 = getelementptr inbounds %struct.lzma_filter, ptr %0, i64 %.01522, i32 1
  %13 = load ptr, ptr %12, align 8
  %14 = tail call i64 %10(ptr noundef %13) #9
  %15 = icmp eq i64 %14, 0
  br i1 %15, label %._crit_edge, label %16

16:                                               ; preds = %11
  %spec.select = tail call i64 @llvm.umax.i64(i64 %14, i64 %.01423)
  br label %17

17:                                               ; preds = %16, %encoder_find.exit
  %.1 = phi i64 [ %.01423, %encoder_find.exit ], [ %spec.select, %16 ]
  %18 = add i64 %.01522, 1
  %19 = getelementptr inbounds %struct.lzma_filter, ptr %0, i64 %18
  %20 = load i64, ptr %19, align 8
  %.not = icmp eq i64 %20, -1
  br i1 %.not, label %._crit_edge, label %.preheader, !llvm.loop !9

._crit_edge:                                      ; preds = %11, %17, %1
  %.0 = phi i64 [ 0, %1 ], [ %.1, %17 ], [ 0, %11 ]
  ret i64 %.0
}